target datalayout = "e-m:e-p270:32:32-p271:32:32-p272:64:64-i64:64-f80:128-n8:16:32:64-S128"
target triple = "x86_64-pc-linux-gnu"

@.str = private unnamed_addr constant [5 x i8] c"%d%c\00", align 1
@.str.1 = private unnamed_addr constant [3 x i8] c"NO\00", align 1
@.str.2 = private unnamed_addr constant [4 x i8] c"%d\0A\00", align 1
@.str.3 = private unnamed_addr constant [3 x i8] c"%c\00", align 1
@.str.4 = private unnamed_addr constant [2 x i8] c"\0A\00", align 1

; Function Attrs: noinline nounwind uwtable
define dso_local i32 @main() #0 {
  %1 = alloca i32, align 4
  %2 = alloca [500 x i8], align 16
  %3 = alloca [250 x [5 x i8]], align 16
  %4 = alloca i8, align 1
  %5 = alloca [250 x i32], align 16
  %6 = alloca i32, align 4
  %7 = alloca i32, align 4
  %8 = alloca i32, align 4
  %9 = alloca i32, align 4
  %10 = alloca i32, align 4
  %11 = alloca i32, align 4
  %12 = alloca i32, align 4
  store i32 0, i32* %1, align 4
  %13 = bitcast [250 x i32]* %5 to i8*
  call void @llvm.memset.p0i8.i64(i8* align 16 %13, i8 0, i64 1000, i1 false)
  %14 = call i32 (i8*, ...) @__isoc99_scanf(i8* getelementptr inbounds ([5 x i8], [5 x i8]* @.str, i64 0, i64 0), i32* %6, i8* %4)
  %15 = getelementptr inbounds [500 x i8], [500 x i8]* %2, i64 0, i64 0
  %16 = call i32 (i8*, ...) bitcast (i32 (...)* @gets to i32 (i8*, ...)*)(i8* %15)
  %17 = getelementptr inbounds [500 x i8], [500 x i8]* %2, i64 0, i64 0
  %18 = call i64 @strlen(i8* %17) #4
  %19 = trunc i64 %18 to i32
  store i32 %19, i32* %9, align 4
  store i32 0, i32* %7, align 4
  br label %20

20:                                               ; preds = %48, %0
  %21 = load i32, i32* %7, align 4
  %22 = load i32, i32* %9, align 4
  %23 = load i32, i32* %6, align 4
  %24 = sub nsw i32 %22, %23
  %25 = icmp sle i32 %21, %24
  br i1 %25, label %26, label %51

26:                                               ; preds = %20
  store i32 0, i32* %8, align 4
  br label %27

27:                                               ; preds = %44, %26
  %28 = load i32, i32* %8, align 4
  %29 = load i32, i32* %6, align 4
  %30 = icmp slt i32 %28, %29
  br i1 %30, label %31, label %47

31:                                               ; preds = %27
  %32 = load i32, i32* %7, align 4
  %33 = load i32, i32* %8, align 4
  %34 = add nsw i32 %32, %33
  %35 = sext i32 %34 to i64
  %36 = getelementptr inbounds [500 x i8], [500 x i8]* %2, i64 0, i64 %35
  %37 = load i8, i8* %36, align 1
  %38 = load i32, i32* %7, align 4
  %39 = sext i32 %38 to i64
  %40 = getelementptr inbounds [250 x [5 x i8]], [250 x [5 x i8]]* %3, i64 0, i64 %39
  %41 = load i32, i32* %8, align 4
  %42 = sext i32 %41 to i64
  %43 = getelementptr inbounds [5 x i8], [5 x i8]* %40, i64 0, i64 %42
  store i8 %37, i8* %43, align 1
  br label %44

44:                                               ; preds = %31
  %45 = load i32, i32* %8, align 4
  %46 = add nsw i32 %45, 1
  store i32 %46, i32* %8, align 4
  br label %27

47:                                               ; preds = %27
  br label %48

48:                                               ; preds = %47
  %49 = load i32, i32* %7, align 4
  %50 = add nsw i32 %49, 1
  store i32 %50, i32* %7, align 4
  br label %20

51:                                               ; preds = %20
  store i32 0, i32* %7, align 4
  br label %52

52:                                               ; preds = %127, %51
  %53 = load i32, i32* %7, align 4
  %54 = load i32, i32* %9, align 4
  %55 = load i32, i32* %6, align 4
  %56 = sub nsw i32 %54, %55
  %57 = icmp sle i32 %53, %56
  br i1 %57, label %58, label %130

58:                                               ; preds = %52
  %59 = load i32, i32* %7, align 4
  %60 = add nsw i32 %59, 1
  store i32 %60, i32* %8, align 4
  br label %61

61:                                               ; preds = %123, %58
  %62 = load i32, i32* %8, align 4
  %63 = load i32, i32* %9, align 4
  %64 = load i32, i32* %6, align 4
  %65 = sub nsw i32 %63, %64
  %66 = icmp sle i32 %62, %65
  br i1 %66, label %67, label %126

67:                                               ; preds = %61
  %68 = load i32, i32* %7, align 4
  %69 = sext i32 %68 to i64
  %70 = getelementptr inbounds [250 x [5 x i8]], [250 x [5 x i8]]* %3, i64 0, i64 %69
  %71 = getelementptr inbounds [5 x i8], [5 x i8]* %70, i64 0, i64 0
  %72 = load i8, i8* %71, align 1
  %73 = sext i8 %72 to i32
  %74 = icmp ne i32 %73, 0
  br i1 %74, label %75, label %122

75:                                               ; preds = %67
  store i32 0, i32* %12, align 4
  store i32 0, i32* %11, align 4
  br label %76

76:                                               ; preds = %102, %75
  %77 = load i32, i32* %11, align 4
  %78 = load i32, i32* %6, align 4
  %79 = icmp slt i32 %77, %78
  br i1 %79, label %80, label %105

80:                                               ; preds = %76
  %81 = load i32, i32* %7, align 4
  %82 = sext i32 %81 to i64
  %83 = getelementptr inbounds [250 x [5 x i8]], [250 x [5 x i8]]* %3, i64 0, i64 %82
  %84 = load i32, i32* %11, align 4
  %85 = sext i32 %84 to i64
  %86 = getelementptr inbounds [5 x i8], [5 x i8]* %83, i64 0, i64 %85
  %87 = load i8, i8* %86, align 1
  %88 = sext i8 %87 to i32
  %89 = load i32, i32* %8, align 4
  %90 = sext i32 %89 to i64
  %91 = getelementptr inbounds [250 x [5 x i8]], [250 x [5 x i8]]* %3, i64 0, i64 %90
  %92 = load i32, i32* %11, align 4
  %93 = sext i32 %92 to i64
  %94 = getelementptr inbounds [5 x i8], [5 x i8]* %91, i64 0, i64 %93
  %95 = load i8, i8* %94, align 1
  %96 = sext i8 %95 to i32
  %97 = icmp ne i32 %88, %96
  br i1 %97, label %98, label %101

98:                                               ; preds = %80
  %99 = load i32, i32* %12, align 4
  %100 = add nsw i32 %99, 1
  store i32 %100, i32* %12, align 4
  br label %101

101:                                              ; preds = %98, %80
  br label %102

102:                                              ; preds = %101
  %103 = load i32, i32* %11, align 4
  %104 = add nsw i32 %103, 1
  store i32 %104, i32* %11, align 4
  br label %76

105:                                              ; preds = %76
  %106 = load i32, i32* %12, align 4
  %107 = icmp eq i32 %106, 0
  br i1 %107, label %108, label %121

108:                                              ; preds = %105
  %109 = load i32, i32* %7, align 4
  %110 = sext i32 %109 to i64
  %111 = getelementptr inbounds [250 x i32], [250 x i32]* %5, i64 0, i64 %110
  %112 = load i32, i32* %111, align 4
  %113 = add nsw i32 %112, 1
  %114 = load i32, i32* %7, align 4
  %115 = sext i32 %114 to i64
  %116 = getelementptr inbounds [250 x i32], [250 x i32]* %5, i64 0, i64 %115
  store i32 %113, i32* %116, align 4
  %117 = load i32, i32* %8, align 4
  %118 = sext i32 %117 to i64
  %119 = getelementptr inbounds [250 x [5 x i8]], [250 x [5 x i8]]* %3, i64 0, i64 %118
  %120 = getelementptr inbounds [5 x i8], [5 x i8]* %119, i64 0, i64 0
  store i8 0, i8* %120, align 1
  br label %121

121:                                              ; preds = %108, %105
  br label %122

122:                                              ; preds = %121, %67
  br label %123

123:                                              ; preds = %122
  %124 = load i32, i32* %8, align 4
  %125 = add nsw i32 %124, 1
  store i32 %125, i32* %8, align 4
  br label %61

126:                                              ; preds = %61
  br label %127

127:                                              ; preds = %126
  %128 = load i32, i32* %7, align 4
  %129 = add nsw i32 %128, 1
  store i32 %129, i32* %7, align 4
  br label %52

130:                                              ; preds = %52
  %131 = getelementptr inbounds [250 x i32], [250 x i32]* %5, i64 0, i64 0
  %132 = load i32, i32* %131, align 16
  %133 = add nsw i32 %132, 1
  store i32 %133, i32* %10, align 4
  store i32 0, i32* %7, align 4
  br label %134

134:                                              ; preds = %155, %130
  %135 = load i32, i32* %7, align 4
  %136 = load i32, i32* %9, align 4
  %137 = load i32, i32* %6, align 4
  %138 = sub nsw i32 %136, %137
  %139 = icmp slt i32 %135, %138
  br i1 %139, label %140, label %158

140:                                              ; preds = %134
  %141 = load i32, i32* %7, align 4
  %142 = sext i32 %141 to i64
  %143 = getelementptr inbounds [250 x i32], [250 x i32]* %5, i64 0, i64 %142
  %144 = load i32, i32* %143, align 4
  %145 = load i32, i32* %10, align 4
  %146 = sub nsw i32 %145, 1
  %147 = icmp sgt i32 %144, %146
  br i1 %147, label %148, label %154

148:                                              ; preds = %140
  %149 = load i32, i32* %7, align 4
  %150 = sext i32 %149 to i64
  %151 = getelementptr inbounds [250 x i32], [250 x i32]* %5, i64 0, i64 %150
  %152 = load i32, i32* %151, align 4
  %153 = add nsw i32 %152, 1
  store i32 %153, i32* %10, align 4
  br label %154

154:                                              ; preds = %148, %140
  br label %155

155:                                              ; preds = %154
  %156 = load i32, i32* %7, align 4
  %157 = add nsw i32 %156, 1
  store i32 %157, i32* %7, align 4
  br label %134

158:                                              ; preds = %134
  %159 = load i32, i32* %10, align 4
  %160 = icmp eq i32 %159, 1
  br i1 %160, label %161, label %163

161:                                              ; preds = %158
  %162 = call i32 (i8*, ...) @printf(i8* getelementptr inbounds ([3 x i8], [3 x i8]* @.str.1, i64 0, i64 0))
  br label %205

163:                                              ; preds = %158
  %164 = load i32, i32* %10, align 4
  %165 = call i32 (i8*, ...) @printf(i8* getelementptr inbounds ([4 x i8], [4 x i8]* @.str.2, i64 0, i64 0), i32 %164)
  store i32 0, i32* %7, align 4
  br label %166

166:                                              ; preds = %201, %163
  %167 = load i32, i32* %7, align 4
  %168 = load i32, i32* %9, align 4
  %169 = load i32, i32* %6, align 4
  %170 = sub nsw i32 %168, %169
  %171 = icmp sle i32 %167, %170
  br i1 %171, label %172, label %204

172:                                              ; preds = %166
  %173 = load i32, i32* %7, align 4
  %174 = sext i32 %173 to i64
  %175 = getelementptr inbounds [250 x i32], [250 x i32]* %5, i64 0, i64 %174
  %176 = load i32, i32* %175, align 4
  %177 = load i32, i32* %10, align 4
  %178 = sub nsw i32 %177, 1
  %179 = icmp eq i32 %176, %178
  br i1 %179, label %180, label %200

180:                                              ; preds = %172
  store i32 0, i32* %8, align 4
  br label %181

181:                                              ; preds = %195, %180
  %182 = load i32, i32* %8, align 4
  %183 = load i32, i32* %6, align 4
  %184 = icmp slt i32 %182, %183
  br i1 %184, label %185, label %198

185:                                              ; preds = %181
  %186 = load i32, i32* %7, align 4
  %187 = sext i32 %186 to i64
  %188 = getelementptr inbounds [250 x [5 x i8]], [250 x [5 x i8]]* %3, i64 0, i64 %187
  %189 = load i32, i32* %8, align 4
  %190 = sext i32 %189 to i64
  %191 = getelementptr inbounds [5 x i8], [5 x i8]* %188, i64 0, i64 %190
  %192 = load i8, i8* %191, align 1
  %193 = sext i8 %192 to i32
  %194 = call i32 (i8*, ...) @printf(i8* getelementptr inbounds ([3 x i8], [3 x i8]* @.str.3, i64 0, i64 0), i32 %193)
  br label %195

195:                                              ; preds = %185
  %196 = load i32, i32* %8, align 4
  %197 = add nsw i32 %196, 1
  store i32 %197, i32* %8, align 4
  br label %181

198:                                              ; preds = %181
  %199 = call i32 (i8*, ...) @printf(i8* getelementptr inbounds ([2 x i8], [2 x i8]* @.str.4, i64 0, i64 0))
  br label %200

200:                                              ; preds = %198, %172
  br label %201

201:                                              ; preds = %200
  %202 = load i32, i32* %7, align 4
  %203 = add nsw i32 %202, 1
  store i32 %203, i32* %7, align 4
  br label %166

204:                                              ; preds = %166
  br label %205

205:                                              ; preds = %204, %161
  %206 = load i32, i32* %1, align 4
  ret i32 %206
}